; Function Attrs: nounwind sspstrong uwtable
define hidden void @rb_assert_iseq_handle(i64 noundef %0) local_unnamed_addr #0 {
  %2 = icmp eq i64 %0, 0
  %3 = and i64 %0, 7
  %4 = icmp ne i64 %3, 0
  %5 = or i1 %2, %4
  br i1 %5, label %imemo_type_p.exit.thread, label %imemo_type_p.exit, !prof !113

imemo_type_p.exit:                                ; preds = %1
  %6 = inttoptr i64 %0 to ptr
  %7 = load i64, ptr %6, align 8, !tbaa !11
  %8 = and i64 %7, 61471
  %.not = icmp eq i64 %8, 28698
  br i1 %.not, label %9, label %imemo_type_p.exit.thread, !prof !114

imemo_type_p.exit.thread:                         ; preds = %1, %imemo_type_p.exit
  tail call void @rb_assert_failure(ptr noundef nonnull @.str.12, i32 noundef 1063, ptr noundef nonnull @__func__.rb_assert_iseq_handle, ptr noundef nonnull @.str.23) #24
  unreachable

9:                                                ; preds = %imemo_type_p.exit
  ret void
}